target datalayout = "e-m:e-p270:32:32-p271:32:32-p272:64:64-i64:64-i128:128-f80:128-n8:16:32:64-S128"
target triple = "x86_64-unknown-linux-gnu"

%struct.sockaddr_in = type { i16, i16, %struct.in_addr, [8 x i8] }
%struct.in_addr = type { i32 }
%struct.sockaddr_in6 = type { i16, i16, i32, %struct.in6_addr, i32 }
%struct.in6_addr = type { %union.anon.16 }
%union.anon.16 = type { [4 x i32] }
%"struct.std::array" = type { [1025 x i8] }
%struct.sockaddr_storage = type { i16, [118 x i8], i64 }
%struct.ucred = type { i32, i32, i32 }

; Function Attrs: mustprogress nounwind uwtable
define linkonce_odr noundef ptr @_ZNSt14__array_traitsIcLm1025EE6_S_ptrERA1025_Kc(ptr noundef nonnull align 1 dereferenceable(1025) %__t) #4 comdat align 2 {
entry:
  %__t.addr = alloca ptr, align 8
  store ptr %__t, ptr %__t.addr, align 8
  %0 = load ptr, ptr %__t.addr, align 8
  %arraydecay = getelementptr inbounds [1025 x i8], ptr %0, i64 0, i64 0
  ret ptr %arraydecay
}

; Function Attrs: mustprogress nounwind willreturn memory(none) uwtable
define linkonce_odr noundef i64 @_ZNKSt5arrayIcLm1025EE4sizeEv(ptr noundef nonnull align 1 dereferenceable(1025) %this) #11 comdat align 2 {
entry:
  %this.addr = alloca ptr, align 8
  store ptr %this, ptr %this.addr, align 8
  ret i64 1025
}

; Function Attrs: mustprogress nounwind willreturn memory(none) uwtable
define linkonce_odr noundef ptr @_ZNSt5arrayIcLm1025EE4dataEv(ptr noundef nonnull align 1 dereferenceable(1025) %this) #11 comdat align 2 {
entry:
  %this.addr = alloca ptr, align 8
  store ptr %this, ptr %this.addr, align 8
  %this1 = load ptr, ptr %this.addr, align 8
  %_M_elems = getelementptr inbounds %"struct.std::array", ptr %this1, i32 0, i32 0
  %call = call noundef ptr @_ZNSt14__array_traitsIcLm1025EE6_S_ptrERA1025_Kc(ptr noundef nonnull align 1 dereferenceable(1025) %_M_elems) #3
  ret ptr %call
}

; Function Attrs: mustprogress uwtable
define noundef zeroext i1 @_ZN7httplib6detail15get_ip_and_portERK16sockaddr_storagejRNSt7__cxx1112basic_stringIcSt11char_traitsIcESaIcEEERi(ptr noundef nonnull align 8 dereferenceable(128) %addr, i32 noundef %addr_len, ptr noundef nonnull align 8 dereferenceable(32) %ip, ptr noundef nonnull align 4 dereferenceable(4) %port) #6 {
entry:
  %retval = alloca i1, align 1
  %addr.addr = alloca ptr, align 8
  %addr_len.addr = alloca i32, align 4
  %ip.addr = alloca ptr, align 8
  %port.addr = alloca ptr, align 8
  %ipstr = alloca %"struct.std::array", align 1
  store ptr %addr, ptr %addr.addr, align 8
  store i32 %addr_len, ptr %addr_len.addr, align 4
  store ptr %ip, ptr %ip.addr, align 8
  store ptr %port, ptr %port.addr, align 8
  %0 = load ptr, ptr %addr.addr, align 8
  %ss_family = getelementptr inbounds %struct.sockaddr_storage, ptr %0, i32 0, i32 0
  %1 = load i16, ptr %ss_family, align 8
  %conv = zext i16 %1 to i32
  %cmp = icmp eq i32 %conv, 2
  br i1 %cmp, label %if.then, label %if.else

if.then:                                          ; preds = %entry
  %2 = load ptr, ptr %addr.addr, align 8
  %sin_port = getelementptr inbounds %struct.sockaddr_in, ptr %2, i32 0, i32 1
  %3 = load i16, ptr %sin_port, align 2
  %call = call zeroext i16 @ntohs(i16 noundef zeroext %3) #23
  %conv1 = zext i16 %call to i32
  %4 = load ptr, ptr %port.addr, align 8
  store i32 %conv1, ptr %4, align 4
  br label %if.end9

if.else:                                          ; preds = %entry
  %5 = load ptr, ptr %addr.addr, align 8
  %ss_family2 = getelementptr inbounds %struct.sockaddr_storage, ptr %5, i32 0, i32 0
  %6 = load i16, ptr %ss_family2, align 8
  %conv3 = zext i16 %6 to i32
  %cmp4 = icmp eq i32 %conv3, 10
  br i1 %cmp4, label %if.then5, label %if.else8

if.then5:                                         ; preds = %if.else
  %7 = load ptr, ptr %addr.addr, align 8
  %sin6_port = getelementptr inbounds %struct.sockaddr_in6, ptr %7, i32 0, i32 1
  %8 = load i16, ptr %sin6_port, align 2
  %call6 = call zeroext i16 @ntohs(i16 noundef zeroext %8) #23
  %conv7 = zext i16 %call6 to i32
  %9 = load ptr, ptr %port.addr, align 8
  store i32 %conv7, ptr %9, align 4
  br label %if.end

if.else8:                                         ; preds = %if.else
  store i1 false, ptr %retval, align 1
  br label %return

if.end:                                           ; preds = %if.then5
  br label %if.end9

if.end9:                                          ; preds = %if.end, %if.then
  call void @llvm.memset.p0.i64(ptr align 1 %ipstr, i8 0, i64 1025, i1 false)
  %10 = load ptr, ptr %addr.addr, align 8
  %11 = load i32, ptr %addr_len.addr, align 4
  %call10 = call noundef ptr @_ZNSt5arrayIcLm1025EE4dataEv(ptr noundef nonnull align 1 dereferenceable(1025) %ipstr) #23
  %call11 = call noundef i64 @_ZNKSt5arrayIcLm1025EE4sizeEv(ptr noundef nonnull align 1 dereferenceable(1025) %ipstr) #23
  %conv12 = trunc i64 %call11 to i32
  %call13 = call i32 @getnameinfo(ptr noundef %10, i32 noundef %11, ptr noundef %call10, i32 noundef %conv12, ptr noundef null, i32 noundef 0, i32 noundef 1)
  %tobool = icmp ne i32 %call13, 0
  br i1 %tobool, label %if.then14, label %if.end15

if.then14:                                        ; preds = %if.end9
  store i1 false, ptr %retval, align 1
  br label %return

if.end15:                                         ; preds = %if.end9
  %call16 = call noundef ptr @_ZNSt5arrayIcLm1025EE4dataEv(ptr noundef nonnull align 1 dereferenceable(1025) %ipstr) #23
  %12 = load ptr, ptr %ip.addr, align 8
  %call17 = call noundef nonnull align 8 dereferenceable(32) ptr @_ZNSt7__cxx1112basic_stringIcSt11char_traitsIcESaIcEEaSEPKc(ptr noundef nonnull align 8 dereferenceable(32) %12, ptr noundef %call16)
  store i1 true, ptr %retval, align 1
  br label %return

return:                                           ; preds = %if.end15, %if.then14, %if.else8
  %13 = load i1, ptr %retval, align 1
  ret i1 %13
}

; Function Attrs: mustprogress uwtable
define void @_ZN7httplib6detail22get_remote_ip_and_portEiRNSt7__cxx1112basic_stringIcSt11char_traitsIcESaIcEEERi(i32 noundef %sock, ptr noundef nonnull align 8 dereferenceable(32) %ip, ptr noundef nonnull align 4 dereferenceable(4) %port) #6 {
entry:
  %sock.addr = alloca i32, align 4
  %ip.addr = alloca ptr, align 8
  %port.addr = alloca ptr, align 8
  %addr = alloca %struct.sockaddr_storage, align 8
  %addr_len = alloca i32, align 4
  %ucred = alloca %struct.ucred, align 4
  %len = alloca i32, align 4
  store i32 %sock, ptr %sock.addr, align 4
  store ptr %ip, ptr %ip.addr, align 8
  store ptr %port, ptr %port.addr, align 8
  store i32 128, ptr %addr_len, align 4
  %0 = load i32, ptr %sock.addr, align 4
  %call = call i32 @getpeername(i32 noundef %0, ptr noundef %addr, ptr noundef %addr_len) #3
  %tobool = icmp ne i32 %call, 0
  br i1 %tobool, label %if.end7, label %if.then

if.then:                                          ; preds = %entry
  %ss_family = getelementptr inbounds %struct.sockaddr_storage, ptr %addr, i32 0, i32 0
  %1 = load i16, ptr %ss_family, align 8
  %conv = zext i16 %1 to i32
  %cmp = icmp eq i32 %conv, 1
  br i1 %cmp, label %if.then1, label %if.end5

if.then1:                                         ; preds = %if.then
  store i32 12, ptr %len, align 4
  %2 = load i32, ptr %sock.addr, align 4
  %call2 = call i32 @getsockopt(i32 noundef %2, i32 noundef 1, i32 noundef 17, ptr noundef %ucred, ptr noundef %len) #3
  %cmp3 = icmp eq i32 %call2, 0
  br i1 %cmp3, label %if.then4, label %if.end

if.then4:                                         ; preds = %if.then1
  %pid = getelementptr inbounds %struct.ucred, ptr %ucred, i32 0, i32 0
  %3 = load i32, ptr %pid, align 4
  %4 = load ptr, ptr %port.addr, align 8
  store i32 %3, ptr %4, align 4
  br label %if.end

if.end:                                           ; preds = %if.then4, %if.then1
  br label %if.end7

if.end5:                                          ; preds = %if.then
  %5 = load i32, ptr %addr_len, align 4
  %6 = load ptr, ptr %ip.addr, align 8
  %7 = load ptr, ptr %port.addr, align 8
  %call6 = call noundef zeroext i1 @_ZN7httplib6detail15get_ip_and_portERK16sockaddr_storagejRNSt7__cxx1112basic_stringIcSt11char_traitsIcESaIcEEERi(ptr noundef nonnull align 8 dereferenceable(128) %addr, i32 noundef %5, ptr noundef nonnull align 8 dereferenceable(32) %6, ptr noundef nonnull align 4 dereferenceable(4) %7)
  br label %if.end7

if.end7:                                          ; preds = %if.end5, %if.end, %entry
  ret void
}