; Function Attrs: mustprogress uwtable
define void @_ZN7httplib6detail22get_remote_ip_and_portEiRNSt7__cxx1112basic_stringIcSt11char_traitsIcESaIcEEERi(i32 noundef %sock, ptr noundef nonnull align 8 dereferenceable(32) %ip, ptr nocapture noundef nonnull writeonly align 4 dereferenceable(4) %port) local_unnamed_addr #5 {
entry:
  %ipstr.i = alloca %"struct.std::array", align 1
  %addr = alloca %struct.sockaddr_storage, align 8
  %addr_len = alloca i32, align 4
  %ucred = alloca %struct.ucred, align 4
  %len = alloca i32, align 4
  store i32 128, ptr %addr_len, align 4
  %call = call i32 @getpeername(i32 noundef %sock, ptr noundef nonnull %addr, ptr noundef nonnull %addr_len) #37
  %tobool.not = icmp eq i32 %call, 0
  br i1 %tobool.not, label %if.then, label %if.end7

if.then:                                          ; preds = %entry
  %0 = load i16, ptr %addr, align 8
  %cmp = icmp eq i16 %0, 1
  br i1 %cmp, label %if.then1, label %if.end5

if.then1:                                         ; preds = %if.then
  store i32 12, ptr %len, align 4
  %call2 = call i32 @getsockopt(i32 noundef %sock, i32 noundef 1, i32 noundef 17, ptr noundef nonnull %ucred, ptr noundef nonnull %len) #37
  %cmp3 = icmp eq i32 %call2, 0
  br i1 %cmp3, label %if.then4, label %if.end7

if.then4:                                         ; preds = %if.then1
  %1 = load i32, ptr %ucred, align 4
  store i32 %1, ptr %port, align 4
  br label %if.end7

if.end5:                                          ; preds = %if.then
  %2 = load i32, ptr %addr_len, align 4
  call void @llvm.lifetime.start.p0(i64 1025, ptr nonnull %ipstr.i)
  switch i16 %0, label %_ZN7httplib6detail15get_ip_and_portERK16sockaddr_storagejRNSt7__cxx1112basic_stringIcSt11char_traitsIcESaIcEEERi.exit [
    i16 2, label %if.end9.i
    i16 10, label %if.end9.i
  ]

if.end9.i:                                        ; preds = %if.end5, %if.end5
  %sin6_port.i = getelementptr inbounds i8, ptr %addr, i64 2
  %3 = load i16, ptr %sin6_port.i, align 2
  %call6.i = call zeroext i16 @ntohs(i16 noundef zeroext %3) #42
  %storemerge.i = zext i16 %call6.i to i32
  store i32 %storemerge.i, ptr %port, align 4
  call void @llvm.memset.p0.i64(ptr noundef nonnull align 1 dereferenceable(1025) %ipstr.i, i8 0, i64 1025, i1 false)
  %call13.i = call i32 @getnameinfo(ptr noundef nonnull %addr, i32 noundef %2, ptr noundef nonnull %ipstr.i, i32 noundef 1025, ptr noundef null, i32 noundef 0, i32 noundef 1)
  %tobool.not.i = icmp eq i32 %call13.i, 0
  br i1 %tobool.not.i, label %if.end15.i, label %_ZN7httplib6detail15get_ip_and_portERK16sockaddr_storagejRNSt7__cxx1112basic_stringIcSt11char_traitsIcESaIcEEERi.exit

if.end15.i:                                       ; preds = %if.end9.i
  %call17.i = call noundef nonnull align 8 dereferenceable(32) ptr @_ZNSt7__cxx1112basic_stringIcSt11char_traitsIcESaIcEEaSEPKc(ptr noundef nonnull align 8 dereferenceable(32) %ip, ptr noundef nonnull %ipstr.i)
  br label %_ZN7httplib6detail15get_ip_and_portERK16sockaddr_storagejRNSt7__cxx1112basic_stringIcSt11char_traitsIcESaIcEEERi.exit

_ZN7httplib6detail15get_ip_and_portERK16sockaddr_storagejRNSt7__cxx1112basic_stringIcSt11char_traitsIcESaIcEEERi.exit: ; preds = %if.end5, %if.end9.i, %if.end15.i
  call void @llvm.lifetime.end.p0(i64 1025, ptr nonnull %ipstr.i)
  br label %if.end7

if.end7:                                          ; preds = %if.then1, %if.then4, %_ZN7httplib6detail15get_ip_and_portERK16sockaddr_storagejRNSt7__cxx1112basic_stringIcSt11char_traitsIcESaIcEEERi.exit, %entry
  ret void
}